Certificate:
    Data:
        Version: 1 (0x0)
        Serial Number:
            4c:9e:6a:43:d6:83:ac:2c:c1:57:ab:d9:8d:24:03:a3:4e:a5:d2:42
        Signature Algorithm: sha256WithRSAEncryption
        Issuer: CN = glaredb.com
        Validity
            Not Before: Dec  6 22:41:04 2022 GMT
            Not After : Dec  6 22:41:04 2023 GMT
        Subject: CN = glaredb.com
        Subject Public Key Info:
            Public Key Algorithm: rsaEncryption
                Public-Key: (2048 bit)
                Modulus:
                    00:e3:f1:bf:30:04:d3:84:af:4c:9c:1a:c9:78:a7:
                    e1:c4:06:00:f2:f6:43:4b:9e:cd:42:cc:52:2a:0d:
                    3b:f5:a2:fb:77:e6:49:7c:fa:bb:c1:fc:fa:54:5a:
                    c6:45:3c:6d:73:ed:46:d9:e0:8b:b8:f9:b8:5d:e5:
                    e7:5a:ea:18:78:a1:d0:72:ec:ea:cd:9d:07:ef:36:
                    e1:b3:4a:61:8d:d0:61:98:44:86:ed:35:81:84:e7:
                    ae:18:81:e7:87:33:d7:ac:48:d1:38:c5:9f:cd:1f:
                    5f:4d:6c:cb:69:d8:e8:29:28:a5:43:98:50:e8:e0:
                    2c:19:c9:82:a4:07:27:05:55:3d:cd:82:12:d7:f8:
                    c2:d4:52:60:59:d9:12:77:58:da:9a:20:8b:a9:9e:
                    33:e8:20:c3:5a:db:80:52:44:33:39:9d:9f:a3:d1:
                    1b:21:e5:0b:3e:b4:6a:ce:ce:82:3b:7e:cf:d9:dd:
                    62:16:5b:4d:e7:4f:ac:1d:89:25:e5:f1:4e:f0:a8:
                    94:8a:87:b4:cc:94:af:0e:40:e1:b6:4c:47:72:86:
                    8e:4b:30:c3:13:f6:72:6b:5f:5f:9c:0a:92:20:da:
                    d5:14:c0:aa:af:8a:79:2c:0c:b5:ae:2e:e2:bc:e6:
                    2a:ca:1f:4a:68:67:68:29:e7:a2:13:07:07:17:b1:
                    5b:ad
                Exponent: 65537 (0x10001)
    Signature Algorithm: sha256WithRSAEncryption
    Signature Value:
        a9:36:5a:bc:5b:e8:f7:e4:61:dd:12:a8:38:6c:21:7a:2d:ee:
        1d:66:2c:dc:37:dd:30:c3:95:62:c5:97:b8:69:cf:55:a2:fd:
        6f:8f:1c:f1:13:01:a8:66:2c:d9:2d:72:3d:7d:56:34:c0:b8:
        6f:76:72:0e:f7:ee:7d:b4:07:bd:af:9a:d9:d2:42:8f:1a:f6:
        a4:f3:da:3a:36:e9:76:5a:2c:ae:91:16:c2:b6:24:16:c3:42:
        5e:40:e9:2e:af:a3:3b:6e:08:6b:1c:fa:0b:25:2a:85:a7:64:
        48:f1:b2:7b:8d:76:fc:33:12:b0:c8:dc:dc:59:e5:b5:64:77:
        51:40:59:0e:65:d5:47:27:33:6d:d0:4e:5f:ab:4f:fe:46:37:
        38:de:a8:0a:e8:75:e9:da:76:e8:b2:bc:01:20:af:5d:f7:e2:
        52:5d:fb:3e:76:96:0f:d0:89:de:9b:c2:3e:53:62:4e:ff:55:
        9e:b8:ca:63:fc:13:33:e4:72:34:1e:bb:69:68:ba:b4:cf:5a:
        9e:90:7d:37:7f:33:7a:dc:a7:a0:d7:6e:df:b8:2c:a5:e6:71:
        95:b5:75:26:92:3b:56:00:1c:2f:ec:18:2f:98:2e:c1:a1:cf:
        a8:5a:45:86:69:a3:c5:7a:36:d3:70:9b:f3:ac:7b:f5:ab:99:
        d9:90:67:8e
-----BEGIN CERTIFICATE-----
MIICszCCAZsCFEyeakPWg6wswVer2Y0kA6NOpdJCMA0GCSqGSIb3DQEBCwUAMBYx
FDASBgNVBAMMC2dsYXJlZGIuY29tMB4XDTIyMTIwNjIyNDEwNFoXDTIzMTIwNjIy
NDEwNFowFjEUMBIGA1UEAwwLZ2xhcmVkYi5jb20wggEiMA0GCSqGSIb3DQEBAQUA
A4IBDwAwggEKAoIBAQDj8b8wBNOEr0ycGsl4p+HEBgDy9kNLns1CzFIqDTv1ovt3
5kl8+rvB/PpUWsZFPG1z7UbZ4Iu4+bhd5eda6hh4odBy7OrNnQfvNuGzSmGN0GGY
RIbtNYGE564YgeeHM9esSNE4xZ/NH19NbMtp2OgpKKVDmFDo4CwZyYKkBycFVT3N
ghLX+MLUUmBZ2RJ3WNqaIIupnjPoIMNa24BSRDM5nZ+j0Rsh5Qs+tGrOzoI7fs/Z
3WIWW03nT6wdiSXl8U7wqJSKh7TMlK8OQOG2TEdyho5LMMMT9nJrX1+cCpIg2tUU
wKqvinksDLWuLuK85irKH0poZ2gp56ITBwcXsVutAgMBAAEwDQYJKoZIhvcNAQEL
BQADggEBAKk2Wrxb6PfkYd0SqDhsIXot7h1mLNw33TDDlWLFl7hpz1Wi/W+PHPET
AahmLNktcj19VjTAuG92cg737n20B72vmtnSQo8a9qTz2jo26XZaLK6RFsK2JBbD
Ql5A6S6voztuCGsc+gslKoWnZEjxsnuNdvwzErDI3NxZ5bVkd1FAWQ5l1UcnM23Q
Tl+rT/5GNzjeqArodenaduiyvAEgr1334lJd+z52lg/Qid6bwj5TYk7/VZ64ymP8
EzPkcjQeu2lourTPWp6QfTd/M3rcp6DXbt+4LKXmcZW1dSaSO1YAHC/sGC+YLsGh
z6haRYZpo8V6NtNwm/Ose/WrmdmQZ44=
-----END CERTIFICATE-----
